; Function Attrs: mustprogress nounwind uwtable
define internal { i32, ptr } @_ZN12_GLOBAL__N_114RealFileSystem7isLocalERKN4llvm5TwineERb(ptr noundef nonnull align 8 dereferenceable(336) %0, ptr noundef nonnull align 8 dereferenceable(34) %1, ptr noundef nonnull align 1 dereferenceable(1) %2) unnamed_addr #0 align 2 {
  %4 = alloca %"class.llvm::Twine", align 8
  %5 = alloca %"class.llvm::SmallString.127", align 8
  %6 = alloca %"class.llvm::Twine", align 8
  %7 = getelementptr inbounds i8, ptr %5, i64 24
  call void @_ZN4llvm15SmallVectorBaseImEC2EPvm(ptr noundef nonnull align 8 dereferenceable(24) %5, ptr noundef nonnull %7, i64 noundef 256) #27
  call void @llvm.experimental.noalias.scope.decl(metadata !286)
  call void @llvm.lifetime.start.p0(i64 40, ptr nonnull %4)
  %8 = getelementptr inbounds i8, ptr %0, i64 328
  %.val.i = load i8, ptr %8, align 8, !noalias !286
  %9 = trunc i8 %.val.i to i1
  %10 = getelementptr inbounds i8, ptr %0, i64 320
  %.val6.i = load i8, ptr %10, align 8, !noalias !286
  %11 = trunc i8 %.val6.i to i1
  %not..i = xor i1 %9, true
  %12 = select i1 %not..i, i1 true, i1 %11
  br i1 %12, label %13, label %14

13:                                               ; preds = %3
  call void @llvm.memcpy.p0.p0.i64(ptr noundef nonnull align 8 dereferenceable(40) %6, ptr noundef nonnull align 8 dereferenceable(40) %1, i64 40, i1 false)
  br label %_ZNK12_GLOBAL__N_114RealFileSystem10adjustPathERKN4llvm5TwineERNS1_15SmallVectorImplIcEE.exit

14:                                               ; preds = %3
  call void @_ZNK4llvm5Twine8toVectorERNS_15SmallVectorImplIcEE(ptr noundef nonnull align 8 dereferenceable(34) %1, ptr noundef nonnull align 8 dereferenceable(24) %5) #27, !noalias !286
  %15 = getelementptr inbounds i8, ptr %0, i64 168
  %16 = getelementptr inbounds nuw i8, ptr %4, i64 32
  store i8 5, ptr %16, align 8, !noalias !286
  %17 = getelementptr inbounds nuw i8, ptr %4, i64 33
  store i8 1, ptr %17, align 1, !noalias !286
  %18 = load ptr, ptr %15, align 8, !noalias !286
  store ptr %18, ptr %4, align 8, !noalias !286
  %19 = call noundef i64 @_ZNK4llvm15SmallVectorBaseImE4sizeEv(ptr noundef nonnull align 8 dereferenceable(24) %15) #27, !noalias !286
  %20 = getelementptr inbounds nuw i8, ptr %4, i64 8
  store i64 %19, ptr %20, align 8, !noalias !286
  call void @_ZN4llvm3sys2fs13make_absoluteERKNS_5TwineERNS_15SmallVectorImplIcEE(ptr noundef nonnull align 8 dereferenceable(34) %4, ptr noundef nonnull align 8 dereferenceable(24) %5) #27, !noalias !286
  %21 = getelementptr inbounds nuw i8, ptr %6, i64 32
  store i8 5, ptr %21, align 8, !alias.scope !286
  %22 = getelementptr inbounds nuw i8, ptr %6, i64 33
  store i8 1, ptr %22, align 1, !alias.scope !286
  %23 = load ptr, ptr %5, align 8, !noalias !286
  store ptr %23, ptr %6, align 8, !alias.scope !286
  %24 = call noundef i64 @_ZNK4llvm15SmallVectorBaseImE4sizeEv(ptr noundef nonnull align 8 dereferenceable(24) %5) #27, !noalias !286
  %25 = getelementptr inbounds nuw i8, ptr %6, i64 8
  store i64 %24, ptr %25, align 8, !alias.scope !286
  br label %_ZNK12_GLOBAL__N_114RealFileSystem10adjustPathERKN4llvm5TwineERNS1_15SmallVectorImplIcEE.exit

_ZNK12_GLOBAL__N_114RealFileSystem10adjustPathERKN4llvm5TwineERNS1_15SmallVectorImplIcEE.exit: ; preds = %13, %14
  call void @llvm.lifetime.end.p0(i64 40, ptr nonnull %4)
  %26 = call { i32, ptr } @_ZN4llvm3sys2fs8is_localERKNS_5TwineERb(ptr noundef nonnull align 8 dereferenceable(34) %6, ptr noundef nonnull align 1 dereferenceable(1) %2) #27
  %27 = call noundef i64 @_ZNK4llvm15SmallVectorBaseImE4sizeEv(ptr noundef nonnull align 8 dereferenceable(24) %5) #27
  %28 = load ptr, ptr %5, align 8
  %29 = icmp eq ptr %28, %7
  br i1 %29, label %_ZN4llvm11SmallStringILj256EED2Ev.exit, label %30

30:                                               ; preds = %_ZNK12_GLOBAL__N_114RealFileSystem10adjustPathERKN4llvm5TwineERNS1_15SmallVectorImplIcEE.exit
  call void @free(ptr noundef %28) #27
  br label %_ZN4llvm11SmallStringILj256EED2Ev.exit

_ZN4llvm11SmallStringILj256EED2Ev.exit:           ; preds = %_ZNK12_GLOBAL__N_114RealFileSystem10adjustPathERKN4llvm5TwineERNS1_15SmallVectorImplIcEE.exit, %30
  ret { i32, ptr } %26
}